target datalayout = "e-m:e-p270:32:32-p271:32:32-p272:64:64-i64:64-i128:128-f80:128-n8:16:32:64-S128"
target triple = "x86_64-pc-linux-gnu"

%struct.Super_GateStruct_t_ = type { ptr, i32, [2 x i32], [6 x ptr], float, [6 x float], float, ptr }

@.str.19 = private unnamed_addr constant [1 x i8] zeroinitializer, align 1
@.str.42 = private unnamed_addr constant [3 x i8] c"%s\00", align 1
@.str.43 = private unnamed_addr constant [2 x i8] c"\0A\00", align 1
@.str.44 = private unnamed_addr constant [3 x i8] c"* \00", align 1
@.str.45 = private unnamed_addr constant [4 x i8] c" %d\00", align 1

; Function Attrs: nounwind uwtable
define void @Super_WriteLibraryTreeFile_rec(ptr noundef %0, ptr noundef %1, ptr noundef %2, ptr noundef %3) #0 {
  %5 = alloca ptr, align 8
  %6 = alloca ptr, align 8
  %7 = alloca ptr, align 8
  %8 = alloca ptr, align 8
  %9 = alloca i32, align 4
  %10 = alloca i32, align 4
  %11 = alloca i32, align 4
  store ptr %0, ptr %5, align 8, !tbaa !14
  store ptr %1, ptr %6, align 8, !tbaa !20
  store ptr %2, ptr %7, align 8, !tbaa !55
  store ptr %3, ptr %8, align 8, !tbaa !111
  call void @llvm.lifetime.start.p0(i64 4, ptr %9) #12
  call void @llvm.lifetime.start.p0(i64 4, ptr %10) #12
  %12 = load ptr, ptr %7, align 8, !tbaa !55
  %13 = getelementptr inbounds nuw %struct.Super_GateStruct_t_, ptr %12, i32 0, i32 1
  %14 = load i32, ptr %13, align 8
  %15 = and i32 %14, 1
  %16 = icmp ne i32 %15, 0
  br i1 %16, label %23, label %17

17:                                               ; preds = %4
  %18 = load ptr, ptr %7, align 8, !tbaa !55
  %19 = getelementptr inbounds nuw %struct.Super_GateStruct_t_, ptr %18, i32 0, i32 1
  %20 = load i32, ptr %19, align 8
  %21 = lshr i32 %20, 8
  %22 = icmp sgt i32 %21, 0
  br i1 %22, label %23, label %24

23:                                               ; preds = %17, %4
  store i32 1, ptr %11, align 4
  br label %94

24:                                               ; preds = %17
  %25 = load ptr, ptr %7, align 8, !tbaa !55
  %26 = getelementptr inbounds nuw %struct.Super_GateStruct_t_, ptr %25, i32 0, i32 0
  %27 = load ptr, ptr %26, align 8, !tbaa !100
  %28 = call i32 @Mio_GateReadPinNum(ptr noundef %27)
  store i32 %28, ptr %9, align 4, !tbaa !8
  store i32 0, ptr %10, align 4, !tbaa !8
  br label %29

29:                                               ; preds = %43, %24
  %30 = load i32, ptr %10, align 4, !tbaa !8
  %31 = load i32, ptr %9, align 4, !tbaa !8
  %32 = icmp slt i32 %30, %31
  br i1 %32, label %33, label %46

33:                                               ; preds = %29
  %34 = load ptr, ptr %5, align 8, !tbaa !14
  %35 = load ptr, ptr %6, align 8, !tbaa !20
  %36 = load ptr, ptr %7, align 8, !tbaa !55
  %37 = getelementptr inbounds nuw %struct.Super_GateStruct_t_, ptr %36, i32 0, i32 3
  %38 = load i32, ptr %10, align 4, !tbaa !8
  %39 = sext i32 %38 to i64
  %40 = getelementptr inbounds [6 x ptr], ptr %37, i64 0, i64 %39
  %41 = load ptr, ptr %40, align 8, !tbaa !55
  %42 = load ptr, ptr %8, align 8, !tbaa !111
  call void @Super_WriteLibraryTreeFile_rec(ptr noundef %34, ptr noundef %35, ptr noundef %41, ptr noundef %42)
  br label %43

43:                                               ; preds = %33
  %44 = load i32, ptr %10, align 4, !tbaa !8
  %45 = add nsw i32 %44, 1
  store i32 %45, ptr %10, align 4, !tbaa !8
  br label %29, !llvm.loop !113

46:                                               ; preds = %29
  %47 = load ptr, ptr %8, align 8, !tbaa !111
  %48 = load i32, ptr %47, align 4, !tbaa !8
  %49 = add nsw i32 %48, 1
  store i32 %49, ptr %47, align 4, !tbaa !8
  %50 = load ptr, ptr %7, align 8, !tbaa !55
  %51 = getelementptr inbounds nuw %struct.Super_GateStruct_t_, ptr %50, i32 0, i32 1
  %52 = load i32, ptr %51, align 8
  %53 = and i32 %48, 16777215
  %54 = shl i32 %53, 8
  %55 = and i32 %52, 255
  %56 = or i32 %55, %54
  store i32 %56, ptr %51, align 8
  %57 = load ptr, ptr %5, align 8, !tbaa !14
  %58 = load ptr, ptr %7, align 8, !tbaa !55
  %59 = getelementptr inbounds nuw %struct.Super_GateStruct_t_, ptr %58, i32 0, i32 1
  %60 = load i32, ptr %59, align 8
  %61 = lshr i32 %60, 1
  %62 = and i32 %61, 1
  %63 = icmp ne i32 %62, 0
  %64 = select i1 %63, ptr @.str.44, ptr @.str.19
  %65 = call i32 (ptr, ptr, ...) @fprintf(ptr noundef %57, ptr noundef @.str.42, ptr noundef %64) #12
  %66 = load ptr, ptr %5, align 8, !tbaa !14
  %67 = load ptr, ptr %7, align 8, !tbaa !55
  %68 = getelementptr inbounds nuw %struct.Super_GateStruct_t_, ptr %67, i32 0, i32 0
  %69 = load ptr, ptr %68, align 8, !tbaa !100
  %70 = call ptr @Mio_GateReadName(ptr noundef %69)
  %71 = call i32 (ptr, ptr, ...) @fprintf(ptr noundef %66, ptr noundef @.str.42, ptr noundef %70) #12
  store i32 0, ptr %10, align 4, !tbaa !8
  br label %72

72:                                               ; preds = %88, %46
  %73 = load i32, ptr %10, align 4, !tbaa !8
  %74 = load i32, ptr %9, align 4, !tbaa !8
  %75 = icmp slt i32 %73, %74
  br i1 %75, label %76, label %91

76:                                               ; preds = %72
  %77 = load ptr, ptr %5, align 8, !tbaa !14
  %78 = load ptr, ptr %7, align 8, !tbaa !55
  %79 = getelementptr inbounds nuw %struct.Super_GateStruct_t_, ptr %78, i32 0, i32 3
  %80 = load i32, ptr %10, align 4, !tbaa !8
  %81 = sext i32 %80 to i64
  %82 = getelementptr inbounds [6 x ptr], ptr %79, i64 0, i64 %81
  %83 = load ptr, ptr %82, align 8, !tbaa !55
  %84 = getelementptr inbounds nuw %struct.Super_GateStruct_t_, ptr %83, i32 0, i32 1
  %85 = load i32, ptr %84, align 8
  %86 = lshr i32 %85, 8
  %87 = call i32 (ptr, ptr, ...) @fprintf(ptr noundef %77, ptr noundef @.str.45, i32 noundef %86) #12
  br label %88

88:                                               ; preds = %76
  %89 = load i32, ptr %10, align 4, !tbaa !8
  %90 = add nsw i32 %89, 1
  store i32 %90, ptr %10, align 4, !tbaa !8
  br label %72, !llvm.loop !114

91:                                               ; preds = %72
  %92 = load ptr, ptr %5, align 8, !tbaa !14
  %93 = call i32 (ptr, ptr, ...) @fprintf(ptr noundef %92, ptr noundef @.str.43) #12
  store i32 0, ptr %11, align 4
  br label %94

94:                                               ; preds = %91, %23
  call void @llvm.lifetime.end.p0(i64 4, ptr %10) #12
  call void @llvm.lifetime.end.p0(i64 4, ptr %9) #12
  %95 = load i32, ptr %11, align 4
  switch i32 %95, label %97 [
    i32 0, label %96
    i32 1, label %96
  ]

96:                                               ; preds = %94, %94
  ret void

97:                                               ; preds = %94
  unreachable
}