; Function Attrs: nounwind uwtable
define void @Super_WriteLibraryTreeFile_rec(ptr noundef captures(none) %0, ptr noundef readnone captures(none) %1, ptr noundef captures(none) %2, ptr noundef captures(none) %3) local_unnamed_addr #0 {
  %5 = getelementptr inbounds nuw i8, ptr %2, i64 8
  %6 = load i32, ptr %5, align 8
  %7 = and i32 %6, -255
  %or.cond = icmp eq i32 %7, 0
  br i1 %or.cond, label %8, label %34

8:                                                ; preds = %4
  %9 = load ptr, ptr %2, align 8, !tbaa !64
  %10 = tail call i32 @Mio_GateReadPinNum(ptr noundef %9) #20
  %11 = icmp sgt i32 %10, 0
  br i1 %11, label %.lr.ph, label %._crit_edge

.lr.ph:                                           ; preds = %8
  %12 = getelementptr inbounds nuw i8, ptr %2, i64 24
  %wide.trip.count = zext nneg i32 %10 to i64
  br label %13

13:                                               ; preds = %.lr.ph, %13
  %indvars.iv = phi i64 [ 0, %.lr.ph ], [ %indvars.iv.next, %13 ]
  %14 = getelementptr inbounds nuw [6 x ptr], ptr %12, i64 0, i64 %indvars.iv
  %15 = load ptr, ptr %14, align 8, !tbaa !42
  tail call void @Super_WriteLibraryTreeFile_rec(ptr noundef %0, ptr noundef %1, ptr noundef %15, ptr noundef %3)
  %indvars.iv.next = add nuw nsw i64 %indvars.iv, 1
  %exitcond.not = icmp eq i64 %indvars.iv.next, %wide.trip.count
  br i1 %exitcond.not, label %._crit_edge, label %13, !llvm.loop !108

._crit_edge:                                      ; preds = %13, %8
  %16 = load i32, ptr %3, align 4, !tbaa !33
  %17 = add nsw i32 %16, 1
  store i32 %17, ptr %3, align 4, !tbaa !33
  %18 = load i32, ptr %5, align 8
  %19 = shl i32 %16, 8
  %20 = and i32 %18, 255
  %21 = or disjoint i32 %20, %19
  store i32 %21, ptr %5, align 8
  %22 = and i32 %18, 2
  %.not25 = icmp eq i32 %22, 0
  %23 = select i1 %.not25, ptr @.str.19, ptr @.str.44
  %fputs = tail call i32 @fputs(ptr nonnull %23, ptr %0)
  %24 = load ptr, ptr %2, align 8, !tbaa !64
  %25 = tail call ptr @Mio_GateReadName(ptr noundef %24) #20
  %fputs26 = tail call i32 @fputs(ptr %25, ptr %0)
  br i1 %11, label %.lr.ph30, label %._crit_edge31

.lr.ph30:                                         ; preds = %._crit_edge
  %26 = getelementptr inbounds nuw i8, ptr %2, i64 24
  %wide.trip.count36 = zext nneg i32 %10 to i64
  br label %27

27:                                               ; preds = %.lr.ph30, %27
  %indvars.iv33 = phi i64 [ 0, %.lr.ph30 ], [ %indvars.iv.next34, %27 ]
  %28 = getelementptr inbounds nuw [6 x ptr], ptr %26, i64 0, i64 %indvars.iv33
  %29 = load ptr, ptr %28, align 8, !tbaa !42
  %30 = getelementptr inbounds nuw i8, ptr %29, i64 8
  %31 = load i32, ptr %30, align 8
  %32 = lshr i32 %31, 8
  %33 = tail call i32 (ptr, ptr, ...) @fprintf(ptr noundef %0, ptr noundef nonnull @.str.45, i32 noundef %32) #20
  %indvars.iv.next34 = add nuw nsw i64 %indvars.iv33, 1
  %exitcond37.not = icmp eq i64 %indvars.iv.next34, %wide.trip.count36
  br i1 %exitcond37.not, label %._crit_edge31, label %27, !llvm.loop !109

._crit_edge31:                                    ; preds = %27, %._crit_edge
  %fputc = tail call i32 @fputc(i32 10, ptr %0)
  br label %34

34:                                               ; preds = %4, %._crit_edge31
  ret void
}